target datalayout = "e-m:e-p270:32:32-p271:32:32-p272:64:64-i64:64-i128:128-f80:128-n8:16:32:64-S128"
target triple = "x86_64-unknown-linux-gnu"

%"class.spdlog::details::file_helper" = type { i32, i32, ptr, %"class.std::__cxx11::basic_string", %"struct.spdlog::file_event_handlers" }
%"class.std::__cxx11::basic_string" = type { %"struct.std::__cxx11::basic_string<char>::_Alloc_hider", i64, %union.anon }
%"struct.std::__cxx11::basic_string<char>::_Alloc_hider" = type { ptr }
%union.anon = type { i64, [8 x i8] }
%"struct.spdlog::file_event_handlers" = type { %"class.std::function", %"class.std::function.0", %"class.std::function.0", %"class.std::function" }
%"class.std::function.0" = type { %"class.std::_Function_base", ptr }
%"class.std::_Function_base" = type { %"union.std::_Any_data", ptr }
%"union.std::_Any_data" = type { %"union.std::_Nocopy_types" }
%"union.std::_Nocopy_types" = type { { i64, i64 } }
%"class.std::function" = type { %"class.std::_Function_base", ptr }

; Function Attrs: mustprogress uwtable
define dso_local void @_ZN6spdlog7details11file_helperC2ERKNS_19file_event_handlersE(ptr noundef nonnull align 8 dereferenceable(176) %this, ptr noundef nonnull align 8 dereferenceable(128) %event_handlers) unnamed_addr #0 align 2 personality ptr @__gxx_personality_v0 {
entry:
  %this.addr = alloca ptr, align 8
  %event_handlers.addr = alloca ptr, align 8
  %exn.slot = alloca ptr, align 8
  %ehselector.slot = alloca i32, align 4
  store ptr %this, ptr %this.addr, align 8
  store ptr %event_handlers, ptr %event_handlers.addr, align 8
  %this1 = load ptr, ptr %this.addr, align 8
  %open_tries_ = getelementptr inbounds %"class.spdlog::details::file_helper", ptr %this1, i32 0, i32 0
  store i32 5, ptr %open_tries_, align 8
  %open_interval_ = getelementptr inbounds %"class.spdlog::details::file_helper", ptr %this1, i32 0, i32 1
  store i32 10, ptr %open_interval_, align 4
  %fd_ = getelementptr inbounds %"class.spdlog::details::file_helper", ptr %this1, i32 0, i32 2
  store ptr null, ptr %fd_, align 8
  %filename_ = getelementptr inbounds %"class.spdlog::details::file_helper", ptr %this1, i32 0, i32 3
  call void @_ZNSt7__cxx1112basic_stringIcSt11char_traitsIcESaIcEEC1Ev(ptr noundef nonnull align 8 dereferenceable(32) %filename_) #13
  %event_handlers_ = getelementptr inbounds %"class.spdlog::details::file_helper", ptr %this1, i32 0, i32 4
  %0 = load ptr, ptr %event_handlers.addr, align 8
  invoke void @_ZN6spdlog19file_event_handlersC2ERKS0_(ptr noundef nonnull align 8 dereferenceable(128) %event_handlers_, ptr noundef nonnull align 8 dereferenceable(128) %0)
          to label %invoke.cont unwind label %lpad

invoke.cont:                                      ; preds = %entry
  ret void

lpad:                                             ; preds = %entry
  %1 = landingpad { ptr, i32 }
          cleanup
  %2 = extractvalue { ptr, i32 } %1, 0
  store ptr %2, ptr %exn.slot, align 8
  %3 = extractvalue { ptr, i32 } %1, 1
  store i32 %3, ptr %ehselector.slot, align 4
  call void @_ZNSt7__cxx1112basic_stringIcSt11char_traitsIcESaIcEED1Ev(ptr noundef nonnull align 8 dereferenceable(32) %filename_) #13
  br label %eh.resume

eh.resume:                                        ; preds = %lpad
  %exn = load ptr, ptr %exn.slot, align 8
  %sel = load i32, ptr %ehselector.slot, align 4
  %lpad.val = insertvalue { ptr, i32 } poison, ptr %exn, 0
  %lpad.val2 = insertvalue { ptr, i32 } %lpad.val, i32 %sel, 1
  resume { ptr, i32 } %lpad.val2
}