; Function Attrs: mustprogress uwtable
define dso_local void @_ZN6spdlog7details11file_helperC2ERKNS_19file_event_handlersE(ptr noundef nonnull align 8 dereferenceable(176) %this, ptr noundef nonnull align 8 dereferenceable(128) %event_handlers) unnamed_addr #0 align 2 personality ptr @__gxx_personality_v0 {
entry:
  store i32 5, ptr %this, align 8
  %open_interval_ = getelementptr inbounds i8, ptr %this, i64 4
  store i32 10, ptr %open_interval_, align 4
  %fd_ = getelementptr inbounds i8, ptr %this, i64 8
  store ptr null, ptr %fd_, align 8
  %filename_ = getelementptr inbounds i8, ptr %this, i64 16
  tail call void @_ZNSt7__cxx1112basic_stringIcSt11char_traitsIcESaIcEEC1Ev(ptr noundef nonnull align 8 dereferenceable(32) %filename_) #17
  %event_handlers_ = getelementptr inbounds i8, ptr %this, i64 48
  invoke void @_ZN6spdlog19file_event_handlersC2ERKS0_(ptr noundef nonnull align 8 dereferenceable(128) %event_handlers_, ptr noundef nonnull align 8 dereferenceable(128) %event_handlers)
          to label %invoke.cont unwind label %lpad

invoke.cont:                                      ; preds = %entry
  ret void

lpad:                                             ; preds = %entry
  %0 = landingpad { ptr, i32 }
          cleanup
  tail call void @_ZNSt7__cxx1112basic_stringIcSt11char_traitsIcESaIcEED1Ev(ptr noundef nonnull align 8 dereferenceable(32) %filename_) #17
  resume { ptr, i32 } %0
}